target datalayout = "e-m:e-p270:32:32-p271:32:32-p272:64:64-i64:64-i128:128-f80:128-n8:16:32:64-S128"
target triple = "x86_64-pc-linux-gnu"

; Function Attrs: nounwind uwtable
define i32 @Cudd_EstimateCofactor(ptr noundef %0, ptr noundef %1, i32 noundef %2, i32 noundef %3) #0 {
  %5 = alloca i32, align 4
  %6 = alloca ptr, align 8
  %7 = alloca ptr, align 8
  %8 = alloca i32, align 4
  %9 = alloca i32, align 4
  %10 = alloca i32, align 4
  %11 = alloca ptr, align 8
  %12 = alloca ptr, align 8
  store ptr %0, ptr %6, align 8
  store ptr %1, ptr %7, align 8
  store i32 %2, ptr %8, align 4
  store i32 %3, ptr %9, align 4
  %13 = call ptr @st__init_table(ptr noundef @st__ptrcmp, ptr noundef @st__ptrhash)
  store ptr %13, ptr %12, align 8
  %14 = load ptr, ptr %12, align 8
  %15 = icmp eq ptr %14, null
  br i1 %15, label %16, label %17

16:                                               ; preds = %4
  store i32 -1, ptr %5, align 4
  br label %33

17:                                               ; preds = %4
  %18 = load ptr, ptr %6, align 8
  %19 = load ptr, ptr %12, align 8
  %20 = load ptr, ptr %7, align 8
  %21 = ptrtoint ptr %20 to i64
  %22 = and i64 %21, -2
  %23 = inttoptr i64 %22 to ptr
  %24 = load i32, ptr %8, align 4
  %25 = load i32, ptr %9, align 4
  %26 = call i32 @cuddEstimateCofactor(ptr noundef %18, ptr noundef %19, ptr noundef %23, i32 noundef %24, i32 noundef %25, ptr noundef %11)
  store i32 %26, ptr %10, align 4
  %27 = load ptr, ptr %7, align 8
  %28 = ptrtoint ptr %27 to i64
  %29 = and i64 %28, -2
  %30 = inttoptr i64 %29 to ptr
  call void @ddClearFlag(ptr noundef %30)
  %31 = load ptr, ptr %12, align 8
  call void @st__free_table(ptr noundef %31)
  %32 = load i32, ptr %10, align 4
  store i32 %32, ptr %5, align 4
  br label %33

33:                                               ; preds = %17, %16
  %34 = load i32, ptr %5, align 4
  ret i32 %34
}