; Function Attrs: nounwind uwtable
define i32 @Cudd_EstimateCofactor(ptr noundef %0, ptr noundef %1, i32 noundef %2, i32 noundef %3) local_unnamed_addr #0 {
  %5 = alloca ptr, align 8
  %6 = tail call ptr @st__init_table(ptr noundef nonnull @st__ptrcmp, ptr noundef nonnull @st__ptrhash) #23
  %7 = icmp eq ptr %6, null
  br i1 %7, label %13, label %8

8:                                                ; preds = %4
  %9 = ptrtoint ptr %1 to i64
  %10 = and i64 %9, -2
  %11 = inttoptr i64 %10 to ptr
  %12 = call fastcc i32 @cuddEstimateCofactor(ptr noundef %0, ptr noundef %6, ptr noundef %11, i32 noundef %2, i32 noundef %3, ptr noundef %5)
  call fastcc void @ddClearFlag(ptr noundef %11)
  call void @st__free_table(ptr noundef nonnull %6) #23
  br label %13

13:                                               ; preds = %4, %8
  %.0 = phi i32 [ %12, %8 ], [ -1, %4 ]
  ret i32 %.0
}